; Function Attrs: mustprogress uwtable
define hidden void @_ZN17asserted_formulas19refine_inj_axiom_fn8simplifyERK14justified_exprR7obj_refI4expr11ast_managerERS4_I3appS6_E(ptr noundef nonnull readonly align 8 captures(none) dereferenceable(32) %0, ptr noundef nonnull readonly align 8 captures(none) dereferenceable(24) %1, ptr noundef nonnull align 8 dereferenceable(16) %2, ptr nonnull readnone align 8 captures(none) %3) unnamed_addr #3 align 2 {
  %5 = getelementptr inbounds nuw i8, ptr %1, i64 8
  %6 = load ptr, ptr %5, align 8, !tbaa !444
  %7 = getelementptr inbounds nuw i8, ptr %6, i64 4
  %8 = load i32, ptr %7, align 4
  %9 = and i32 %8, 65535
  %10 = icmp eq i32 %9, 2
  br i1 %10, label %11, label %_ZN11ast_manager7inc_refEP3ast.exit.i

11:                                               ; preds = %4
  %12 = getelementptr inbounds nuw i8, ptr %0, i64 16
  %13 = load ptr, ptr %12, align 8, !tbaa !514
  %14 = tail call noundef zeroext i1 @_Z18simplify_inj_axiomR11ast_managerP10quantifierR7obj_refI4exprS_E(ptr noundef nonnull align 8 dereferenceable(976) %13, ptr noundef nonnull %6, ptr noundef nonnull align 8 dereferenceable(16) %2)
  br i1 %14, label %31, label %15

15:                                               ; preds = %11
  %.pr = load ptr, ptr %5, align 8, !tbaa !444
  %.not.i = icmp eq ptr %.pr, null
  br i1 %.not.i, label %20, label %_ZN11ast_manager7inc_refEP3ast.exit.i

_ZN11ast_manager7inc_refEP3ast.exit.i:            ; preds = %4, %15
  %16 = phi ptr [ %.pr, %15 ], [ %6, %4 ]
  %17 = getelementptr inbounds nuw i8, ptr %16, i64 8
  %18 = load i32, ptr %17, align 4, !tbaa !388
  %19 = add i32 %18, 1
  store i32 %19, ptr %17, align 4, !tbaa !388
  br label %20

20:                                               ; preds = %_ZN11ast_manager7inc_refEP3ast.exit.i, %15
  %21 = phi ptr [ %16, %_ZN11ast_manager7inc_refEP3ast.exit.i ], [ null, %15 ]
  %22 = load ptr, ptr %2, align 8, !tbaa !462
  %.not.i4.i = icmp eq ptr %22, null
  br i1 %.not.i4.i, label %_ZN7obj_refI4expr11ast_managerEaSEPS0_.exit, label %23

23:                                               ; preds = %20
  %24 = getelementptr inbounds nuw i8, ptr %2, i64 8
  %25 = load ptr, ptr %24, align 8, !tbaa !466
  %26 = getelementptr inbounds nuw i8, ptr %22, i64 8
  %27 = load i32, ptr %26, align 4, !tbaa !388
  %28 = add i32 %27, -1
  store i32 %28, ptr %26, align 4, !tbaa !388
  %29 = icmp eq i32 %28, 0
  br i1 %29, label %30, label %_ZN7obj_refI4expr11ast_managerEaSEPS0_.exit

30:                                               ; preds = %23
  tail call void @_ZN11ast_manager11delete_nodeEP3ast(ptr noundef nonnull align 8 dereferenceable(976) %25, ptr noundef nonnull %22)
  br label %_ZN7obj_refI4expr11ast_managerEaSEPS0_.exit

_ZN7obj_refI4expr11ast_managerEaSEPS0_.exit:      ; preds = %20, %23, %30
  store ptr %21, ptr %2, align 8, !tbaa !462
  br label %31

31:                                               ; preds = %11, %_ZN7obj_refI4expr11ast_managerEaSEPS0_.exit
  ret void
}